; Function Attrs: mustprogress nofree nounwind willreturn memory(write) uwtable
define i32 @cli_bcapi_isin(ptr nocapture noundef readnone %0, i32 noundef %1, i32 noundef %2, i32 noundef %3) local_unnamed_addr #16 {
  %.not = icmp eq i32 %2, 0
  br i1 %.not, label %14, label %5

5:                                                ; preds = %4
  %6 = sitofp i32 %3 to double
  %7 = sitofp i32 %1 to double
  %8 = sitofp i32 %2 to double
  %9 = fdiv double %7, %8
  %10 = tail call double @sin(double noundef %9) #29
  %11 = fmul double %10, %6
  %12 = fcmp olt double %11, 0.000000e+00
  %.0.v.i = select i1 %12, double -5.000000e-01, double 5.000000e-01
  %.0.i = fadd double %11, %.0.v.i
  %13 = fptosi double %.0.i to i32
  br label %14

14:                                               ; preds = %4, %5
  %.0 = phi i32 [ %13, %5 ], [ 2147483647, %4 ]
  ret i32 %.0
}